target datalayout = "e-m:e-p270:32:32-p271:32:32-p272:64:64-i64:64-i128:128-f80:128-n8:16:32:64-S128"
target triple = "x86_64-pc-linux-gnu"

%class.JfrStorage = type { ptr, ptr, ptr, ptr, ptr, ptr }

@_ZL9_instance = internal global ptr null, align 8

; Function Attrs: mustprogress nounwind uwtable
define hidden noundef nonnull align 8 dereferenceable(48) ptr @_ZN10JfrStorage8instanceEv() #1 align 2 {
  %1 = load ptr, ptr @_ZL9_instance, align 8
  ret ptr %1
}

; Function Attrs: mustprogress nounwind uwtable
define hidden noundef nonnull align 8 dereferenceable(49) ptr @_ZN10JfrStorage7controlEv() #1 align 2 {
  %1 = call noundef nonnull align 8 dereferenceable(48) ptr @_ZN10JfrStorage8instanceEv()
  %2 = getelementptr inbounds %class.JfrStorage, ptr %1, i32 0, i32 0
  %3 = load ptr, ptr %2, align 8
  ret ptr %3
}

; Function Attrs: mustprogress nounwind uwtable
define hidden void @_ZN10JfrStorage13release_largeEP9JfrBufferP6Thread(ptr noundef nonnull align 8 dereferenceable(48) %0, ptr noundef %1, ptr noundef %2) #1 align 2 {
  %4 = alloca ptr, align 8
  %5 = alloca ptr, align 8
  %6 = alloca ptr, align 8
  store ptr %0, ptr %4, align 8
  store ptr %1, ptr %5, align 8
  store ptr %2, ptr %6, align 8
  %7 = load ptr, ptr %4, align 8
  %8 = load ptr, ptr %5, align 8
  call void @_ZN9JfrBuffer11clear_leaseEv(ptr noundef nonnull align 8 dereferenceable(48) %8)
  %9 = load ptr, ptr %5, align 8
  %10 = call noundef zeroext i1 @_ZNK9JfrBuffer9transientEv(ptr noundef nonnull align 8 dereferenceable(48) %9)
  br i1 %10, label %11, label %15

11:                                               ; preds = %3
  %12 = load ptr, ptr %5, align 8
  call void @_ZN9JfrBuffer11set_retiredEv(ptr noundef nonnull align 8 dereferenceable(48) %12)
  %13 = load ptr, ptr %5, align 8
  %14 = load ptr, ptr %6, align 8
  call void @_ZN10JfrStorage13register_fullEP9JfrBufferP6Thread(ptr noundef nonnull align 8 dereferenceable(48) %7, ptr noundef %13, ptr noundef %14)
  br label %19

15:                                               ; preds = %3
  %16 = load ptr, ptr %5, align 8
  call void @_ZN9JfrBuffer7releaseEv(ptr noundef nonnull align 8 dereferenceable(48) %16)
  %17 = call noundef nonnull align 8 dereferenceable(49) ptr @_ZN10JfrStorage7controlEv()
  %18 = call noundef i64 @_ZN17JfrStorageControl16decrement_leasedEv(ptr noundef nonnull align 8 dereferenceable(49) %17)
  br label %19

19:                                               ; preds = %15, %11
  ret void
}