; Function Attrs: mustprogress nounwind uwtable
define hidden void @_ZN10JfrStorage13release_largeEP9JfrBufferP6Thread(ptr nocapture noundef nonnull readonly align 8 dereferenceable(48) %0, ptr noundef nonnull %1, ptr noundef %2) local_unnamed_addr #1 align 2 {
  tail call void @_ZN9JfrBuffer11clear_leaseEv(ptr noundef nonnull align 8 dereferenceable(48) %1) #16
  %4 = tail call noundef zeroext i1 @_ZNK9JfrBuffer9transientEv(ptr noundef nonnull align 8 dereferenceable(48) %1) #16
  br i1 %4, label %5, label %6

5:                                                ; preds = %3
  tail call void @_ZN9JfrBuffer11set_retiredEv(ptr noundef nonnull align 8 dereferenceable(48) %1) #16
  tail call void @_ZN10JfrStorage13register_fullEP9JfrBufferP6Thread(ptr noundef nonnull align 8 dereferenceable(48) %0, ptr noundef nonnull %1, ptr noundef %2)
  br label %10

6:                                                ; preds = %3
  tail call void @_ZN9JfrBuffer7releaseEv(ptr noundef nonnull align 8 dereferenceable(48) %1) #16
  %7 = load ptr, ptr @_ZL9_instance, align 8
  %8 = load ptr, ptr %7, align 8
  %9 = tail call noundef i64 @_ZN17JfrStorageControl16decrement_leasedEv(ptr noundef nonnull align 8 dereferenceable(49) %8) #16
  br label %10

10:                                               ; preds = %6, %5
  ret void
}